target datalayout = "e-m:e-p270:32:32-p271:32:32-p272:64:64-i64:64-i128:128-f80:128-n8:16:32:64-S128"
target triple = "x86_64-pc-linux-gnu"

%struct.lxb_html_tree = type { ptr, ptr, ptr, ptr, ptr, ptr, ptr, %struct.lxb_html_tree_pending_table_t, ptr, i8, i8, i8, i8, i8, i8, ptr, ptr, ptr, i32, i64 }
%struct.lxb_html_tree_pending_table_t = type { ptr, i8 }
%struct.lexbor_array_t = type { ptr, i64, i64 }
%struct.lxb_dom_node = type { %struct.lxb_dom_event_target, i64, i64, i64, ptr, ptr, ptr, ptr, ptr, ptr, ptr, i32, i64 }
%struct.lxb_dom_event_target = type { ptr }

; Function Attrs: nounwind uwtable
define hidden void @lxb_html_tree_open_elements_pop_until_tag_id(ptr noundef %0, i64 noundef %1, i64 noundef %2, i1 noundef zeroext %3) #0 {
  %5 = alloca ptr, align 8
  %6 = alloca i64, align 8
  %7 = alloca i64, align 8
  %8 = alloca i8, align 1
  %9 = alloca ptr, align 8
  %10 = alloca ptr, align 8
  store ptr %0, ptr %5, align 8
  store i64 %1, ptr %6, align 8
  store i64 %2, ptr %7, align 8
  %11 = zext i1 %3 to i8
  store i8 %11, ptr %8, align 1
  %12 = load ptr, ptr %5, align 8
  %13 = getelementptr inbounds %struct.lxb_html_tree, ptr %12, i32 0, i32 4
  %14 = load ptr, ptr %13, align 8
  %15 = getelementptr inbounds %struct.lexbor_array_t, ptr %14, i32 0, i32 0
  %16 = load ptr, ptr %15, align 8
  store ptr %16, ptr %9, align 8
  br label %17

17:                                               ; preds = %63, %4
  %18 = load ptr, ptr %5, align 8
  %19 = getelementptr inbounds %struct.lxb_html_tree, ptr %18, i32 0, i32 4
  %20 = load ptr, ptr %19, align 8
  %21 = getelementptr inbounds %struct.lexbor_array_t, ptr %20, i32 0, i32 2
  %22 = load i64, ptr %21, align 8
  %23 = icmp ne i64 %22, 0
  br i1 %23, label %24, label %64

24:                                               ; preds = %17
  %25 = load ptr, ptr %5, align 8
  %26 = getelementptr inbounds %struct.lxb_html_tree, ptr %25, i32 0, i32 4
  %27 = load ptr, ptr %26, align 8
  %28 = getelementptr inbounds %struct.lexbor_array_t, ptr %27, i32 0, i32 2
  %29 = load i64, ptr %28, align 8
  %30 = add i64 %29, -1
  store i64 %30, ptr %28, align 8
  %31 = load ptr, ptr %9, align 8
  %32 = load ptr, ptr %5, align 8
  %33 = getelementptr inbounds %struct.lxb_html_tree, ptr %32, i32 0, i32 4
  %34 = load ptr, ptr %33, align 8
  %35 = getelementptr inbounds %struct.lexbor_array_t, ptr %34, i32 0, i32 2
  %36 = load i64, ptr %35, align 8
  %37 = getelementptr inbounds ptr, ptr %31, i64 %36
  %38 = load ptr, ptr %37, align 8
  store ptr %38, ptr %10, align 8
  %39 = load ptr, ptr %10, align 8
  %40 = getelementptr inbounds %struct.lxb_dom_node, ptr %39, i32 0, i32 1
  %41 = load i64, ptr %40, align 8
  %42 = load i64, ptr %6, align 8
  %43 = icmp eq i64 %41, %42
  br i1 %43, label %44, label %63

44:                                               ; preds = %24
  %45 = load ptr, ptr %10, align 8
  %46 = getelementptr inbounds %struct.lxb_dom_node, ptr %45, i32 0, i32 3
  %47 = load i64, ptr %46, align 8
  %48 = load i64, ptr %7, align 8
  %49 = icmp eq i64 %47, %48
  br i1 %49, label %50, label %63

50:                                               ; preds = %44
  %51 = load i8, ptr %8, align 1
  %52 = trunc i8 %51 to i1
  %53 = zext i1 %52 to i32
  %54 = icmp eq i32 %53, 0
  br i1 %54, label %55, label %62

55:                                               ; preds = %50
  %56 = load ptr, ptr %5, align 8
  %57 = getelementptr inbounds %struct.lxb_html_tree, ptr %56, i32 0, i32 4
  %58 = load ptr, ptr %57, align 8
  %59 = getelementptr inbounds %struct.lexbor_array_t, ptr %58, i32 0, i32 2
  %60 = load i64, ptr %59, align 8
  %61 = add i64 %60, 1
  store i64 %61, ptr %59, align 8
  br label %62

62:                                               ; preds = %55, %50
  br label %64

63:                                               ; preds = %44, %24
  br label %17

64:                                               ; preds = %62, %17
  ret void
}