; Function Attrs: nofree norecurse nosync nounwind memory(readwrite, inaccessiblemem: none) uwtable
define hidden void @lxb_html_tree_open_elements_pop_until_tag_id(ptr nocapture noundef readonly %0, i64 noundef %1, i64 noundef %2, i1 noundef zeroext %3) local_unnamed_addr #0 {
  %5 = getelementptr inbounds i8, ptr %0, i64 32
  %6 = load ptr, ptr %5, align 8
  %7 = load ptr, ptr %6, align 8
  %8 = getelementptr inbounds i8, ptr %6, i64 16
  %9 = load i64, ptr %8, align 8
  %.not12 = icmp eq i64 %9, 0
  br i1 %.not12, label %.loopexit, label %.lr.ph

.lr.ph:                                           ; preds = %4, %28
  %10 = phi i64 [ %15, %28 ], [ %9, %4 ]
  %11 = phi ptr [ %14, %28 ], [ %8, %4 ]
  %12 = add i64 %10, -1
  store i64 %12, ptr %11, align 8
  %13 = load ptr, ptr %5, align 8
  %14 = getelementptr inbounds i8, ptr %13, i64 16
  %15 = load i64, ptr %14, align 8
  %16 = getelementptr inbounds ptr, ptr %7, i64 %15
  %17 = load ptr, ptr %16, align 8
  %18 = getelementptr inbounds i8, ptr %17, i64 8
  %19 = load i64, ptr %18, align 8
  %20 = icmp eq i64 %19, %1
  br i1 %20, label %21, label %28

21:                                               ; preds = %.lr.ph
  %22 = getelementptr inbounds i8, ptr %17, i64 24
  %23 = load i64, ptr %22, align 8
  %24 = icmp eq i64 %23, %2
  br i1 %24, label %25, label %28

25:                                               ; preds = %21
  br i1 %3, label %.loopexit, label %26

26:                                               ; preds = %25
  %27 = add i64 %15, 1
  store i64 %27, ptr %14, align 8
  br label %.loopexit

28:                                               ; preds = %21, %.lr.ph
  %.not = icmp eq i64 %15, 0
  br i1 %.not, label %.loopexit, label %.lr.ph

.loopexit:                                        ; preds = %28, %4, %25, %26
  ret void
}